target datalayout = "e-m:e-p270:32:32-p271:32:32-p272:64:64-i64:64-i128:128-f80:128-n8:16:32:64-S128"
target triple = "x86_64-pc-linux-gnu"

%struct.AVChannelLayout = type { i32, i32, %union.anon, ptr }
%union.anon = type { i64 }
%struct.AVFormatContext = type { ptr, ptr, ptr, ptr, ptr, i32, i32, ptr, i32, ptr, i32, ptr, ptr, i64, i64, i64, i32, i32, i32, i64, i64, ptr, i32, i32, ptr, i32, i32, i32, i32, ptr, i64, i32, i32, %struct.AVIOInterruptCB, i32, i32, i32, i32, i64, i32, i32, i32, i32, i32, i32, i32, i32, i32, i32, i32, i32, i64, i32, i32, i32, i32, i32, ptr, ptr, ptr, ptr, i32, ptr, ptr, ptr, ptr, i32, ptr, ptr, i64, ptr, ptr, ptr, i64 }
%struct.AVIOInterruptCB = type { ptr, ptr }
%struct.AVStream = type { ptr, i32, i32, ptr, ptr, %struct.AVRational, i64, i64, i64, i32, i32, %struct.AVRational, ptr, %struct.AVRational, %struct.AVPacket, i32, %struct.AVRational, i32 }
%struct.AVPacket = type { ptr, i64, i64, ptr, i32, i32, i32, ptr, i32, i64, i64, ptr, ptr, %struct.AVRational }
%struct.AVRational = type { i32, i32 }
%struct.AVCodecParameters = type { i32, i32, i32, ptr, i32, ptr, i32, i32, i64, i32, i32, i32, i32, i32, i32, %struct.AVRational, %struct.AVRational, i32, i32, i32, i32, i32, i32, i32, %struct.AVChannelLayout, i32, i32, i32, i32, i32, i32 }
%struct.GENHDemuxContext = type { i32, i32 }

; Function Attrs: nounwind uwtable
define internal i32 @genh_read_packet(ptr noundef %0, ptr noundef %1) #0 {
  %3 = alloca i32, align 4
  %4 = alloca ptr, align 8
  %5 = alloca ptr, align 8
  %6 = alloca ptr, align 8
  %7 = alloca ptr, align 8
  %8 = alloca i32, align 4
  %9 = alloca i32, align 4
  %10 = alloca i32, align 4
  %11 = alloca i32, align 4
  store ptr %0, ptr %4, align 8, !tbaa !14
  store ptr %1, ptr %5, align 8, !tbaa !64
  call void @llvm.lifetime.start.p0(i64 8, ptr %6) #5
  %12 = load ptr, ptr %4, align 8, !tbaa !14
  %13 = getelementptr inbounds nuw %struct.AVFormatContext, ptr %12, i32 0, i32 7
  %14 = load ptr, ptr %13, align 8, !tbaa !66
  %15 = getelementptr inbounds ptr, ptr %14, i64 0
  %16 = load ptr, ptr %15, align 8, !tbaa !34
  %17 = getelementptr inbounds nuw %struct.AVStream, ptr %16, i32 0, i32 3
  %18 = load ptr, ptr %17, align 8, !tbaa !36
  store ptr %18, ptr %6, align 8, !tbaa !67
  call void @llvm.lifetime.start.p0(i64 8, ptr %7) #5
  %19 = load ptr, ptr %4, align 8, !tbaa !14
  %20 = getelementptr inbounds nuw %struct.AVFormatContext, ptr %19, i32 0, i32 3
  %21 = load ptr, ptr %20, align 8, !tbaa !16
  store ptr %21, ptr %7, align 8, !tbaa !31
  call void @llvm.lifetime.start.p0(i64 4, ptr %8) #5
  %22 = load ptr, ptr %7, align 8, !tbaa !31
  %23 = getelementptr inbounds nuw %struct.GENHDemuxContext, ptr %22, i32 0, i32 0
  %24 = load i32, ptr %23, align 4, !tbaa !61
  %25 = icmp eq i32 %24, 1
  br i1 %25, label %26, label %122

26:                                               ; preds = %2
  %27 = load ptr, ptr %6, align 8, !tbaa !67
  %28 = getelementptr inbounds nuw %struct.AVCodecParameters, ptr %27, i32 0, i32 1
  %29 = load i32, ptr %28, align 4, !tbaa !58
  %30 = icmp eq i32 %29, 69650
  br i1 %30, label %31, label %122

31:                                               ; preds = %26
  %32 = load ptr, ptr %6, align 8, !tbaa !67
  %33 = getelementptr inbounds nuw %struct.AVCodecParameters, ptr %32, i32 0, i32 24
  %34 = getelementptr inbounds nuw %struct.AVChannelLayout, ptr %33, i32 0, i32 1
  %35 = load i32, ptr %34, align 4, !tbaa !46
  %36 = icmp sgt i32 %35, 1
  br i1 %36, label %37, label %122

37:                                               ; preds = %31
  call void @llvm.lifetime.start.p0(i64 4, ptr %9) #5
  call void @llvm.lifetime.start.p0(i64 4, ptr %10) #5
  %38 = load ptr, ptr %4, align 8, !tbaa !14
  %39 = getelementptr inbounds nuw %struct.AVFormatContext, ptr %38, i32 0, i32 4
  %40 = load ptr, ptr %39, align 8, !tbaa !33
  %41 = call i32 @avio_feof(ptr noundef %40)
  %42 = icmp ne i32 %41, 0
  br i1 %42, label %43, label %44

43:                                               ; preds = %37
  store i32 -541478725, ptr %3, align 4
  store i32 1, ptr %11, align 4
  br label %119

44:                                               ; preds = %37
  %45 = load ptr, ptr %5, align 8, !tbaa !64
  %46 = load ptr, ptr %6, align 8, !tbaa !67
  %47 = getelementptr inbounds nuw %struct.AVCodecParameters, ptr %46, i32 0, i32 24
  %48 = getelementptr inbounds nuw %struct.AVChannelLayout, ptr %47, i32 0, i32 1
  %49 = load i32, ptr %48, align 4, !tbaa !46
  %50 = mul nsw i32 8, %49
  %51 = call i32 @av_new_packet(ptr noundef %45, i32 noundef %50)
  store i32 %51, ptr %8, align 4, !tbaa !51
  %52 = load i32, ptr %8, align 4, !tbaa !51
  %53 = icmp slt i32 %52, 0
  br i1 %53, label %54, label %56

54:                                               ; preds = %44
  %55 = load i32, ptr %8, align 4, !tbaa !51
  store i32 %55, ptr %3, align 4
  store i32 1, ptr %11, align 4
  br label %119

56:                                               ; preds = %44
  store i32 0, ptr %9, align 4, !tbaa !51
  br label %57

57:                                               ; preds = %115, %56
  %58 = load i32, ptr %9, align 4, !tbaa !51
  %59 = load ptr, ptr %7, align 8, !tbaa !31
  %60 = getelementptr inbounds nuw %struct.GENHDemuxContext, ptr %59, i32 0, i32 1
  %61 = load i32, ptr %60, align 4, !tbaa !53
  %62 = udiv i32 8, %61
  %63 = icmp ult i32 %58, %62
  br i1 %63, label %64, label %118

64:                                               ; preds = %57
  store i32 0, ptr %10, align 4, !tbaa !51
  br label %65

65:                                               ; preds = %111, %64
  %66 = load i32, ptr %10, align 4, !tbaa !51
  %67 = load ptr, ptr %6, align 8, !tbaa !67
  %68 = getelementptr inbounds nuw %struct.AVCodecParameters, ptr %67, i32 0, i32 24
  %69 = getelementptr inbounds nuw %struct.AVChannelLayout, ptr %68, i32 0, i32 1
  %70 = load i32, ptr %69, align 4, !tbaa !46
  %71 = icmp slt i32 %66, %70
  br i1 %71, label %72, label %114

72:                                               ; preds = %65
  %73 = load ptr, ptr %4, align 8, !tbaa !14
  %74 = getelementptr inbounds nuw %struct.AVFormatContext, ptr %73, i32 0, i32 4
  %75 = load ptr, ptr %74, align 8, !tbaa !33
  %76 = call i32 @avio_r8(ptr noundef %75)
  %77 = trunc i32 %76 to i8
  %78 = load ptr, ptr %5, align 8, !tbaa !64
  %79 = getelementptr inbounds nuw %struct.AVPacket, ptr %78, i32 0, i32 3
  %80 = load ptr, ptr %79, align 8, !tbaa !68
  %81 = load i32, ptr %10, align 4, !tbaa !51
  %82 = mul nsw i32 %81, 8
  %83 = load i32, ptr %9, align 4, !tbaa !51
  %84 = load ptr, ptr %7, align 8, !tbaa !31
  %85 = getelementptr inbounds nuw %struct.GENHDemuxContext, ptr %84, i32 0, i32 1
  %86 = load i32, ptr %85, align 4, !tbaa !53
  %87 = mul i32 %83, %86
  %88 = add i32 %82, %87
  %89 = add i32 %88, 0
  %90 = zext i32 %89 to i64
  %91 = getelementptr inbounds nuw i8, ptr %80, i64 %90
  store i8 %77, ptr %91, align 1, !tbaa !13
  %92 = load ptr, ptr %4, align 8, !tbaa !14
  %93 = getelementptr inbounds nuw %struct.AVFormatContext, ptr %92, i32 0, i32 4
  %94 = load ptr, ptr %93, align 8, !tbaa !33
  %95 = call i32 @avio_r8(ptr noundef %94)
  %96 = trunc i32 %95 to i8
  %97 = load ptr, ptr %5, align 8, !tbaa !64
  %98 = getelementptr inbounds nuw %struct.AVPacket, ptr %97, i32 0, i32 3
  %99 = load ptr, ptr %98, align 8, !tbaa !68
  %100 = load i32, ptr %10, align 4, !tbaa !51
  %101 = mul nsw i32 %100, 8
  %102 = load i32, ptr %9, align 4, !tbaa !51
  %103 = load ptr, ptr %7, align 8, !tbaa !31
  %104 = getelementptr inbounds nuw %struct.GENHDemuxContext, ptr %103, i32 0, i32 1
  %105 = load i32, ptr %104, align 4, !tbaa !53
  %106 = mul i32 %102, %105
  %107 = add i32 %101, %106
  %108 = add i32 %107, 1
  %109 = zext i32 %108 to i64
  %110 = getelementptr inbounds nuw i8, ptr %99, i64 %109
  store i8 %96, ptr %110, align 1, !tbaa !13
  br label %111

111:                                              ; preds = %72
  %112 = load i32, ptr %10, align 4, !tbaa !51
  %113 = add nsw i32 %112, 1
  store i32 %113, ptr %10, align 4, !tbaa !51
  br label %65, !llvm.loop !69

114:                                              ; preds = %65
  br label %115

115:                                              ; preds = %114
  %116 = load i32, ptr %9, align 4, !tbaa !51
  %117 = add nsw i32 %116, 1
  store i32 %117, ptr %9, align 4, !tbaa !51
  br label %57, !llvm.loop !70

118:                                              ; preds = %57
  store i32 0, ptr %8, align 4, !tbaa !51
  store i32 0, ptr %11, align 4
  br label %119

119:                                              ; preds = %118, %54, %43
  call void @llvm.lifetime.end.p0(i64 4, ptr %10) #5
  call void @llvm.lifetime.end.p0(i64 4, ptr %9) #5
  %120 = load i32, ptr %11, align 4
  switch i32 %120, label %164 [
    i32 0, label %121
  ]

121:                                              ; preds = %119
  br label %160

122:                                              ; preds = %31, %26, %2
  %123 = load ptr, ptr %6, align 8, !tbaa !67
  %124 = getelementptr inbounds nuw %struct.AVCodecParameters, ptr %123, i32 0, i32 1
  %125 = load i32, ptr %124, align 4, !tbaa !58
  %126 = icmp eq i32 %125, 81924
  br i1 %126, label %127, label %137

127:                                              ; preds = %122
  %128 = load ptr, ptr %4, align 8, !tbaa !14
  %129 = getelementptr inbounds nuw %struct.AVFormatContext, ptr %128, i32 0, i32 4
  %130 = load ptr, ptr %129, align 8, !tbaa !33
  %131 = load ptr, ptr %5, align 8, !tbaa !64
  %132 = load ptr, ptr %6, align 8, !tbaa !67
  %133 = getelementptr inbounds nuw %struct.AVCodecParameters, ptr %132, i32 0, i32 26
  %134 = load i32, ptr %133, align 4, !tbaa !55
  %135 = mul nsw i32 %134, 1024
  %136 = call i32 @av_get_packet(ptr noundef %130, ptr noundef %131, i32 noundef %135)
  store i32 %136, ptr %8, align 4, !tbaa !51
  br label %159

137:                                              ; preds = %122
  %138 = load ptr, ptr %4, align 8, !tbaa !14
  %139 = getelementptr inbounds nuw %struct.AVFormatContext, ptr %138, i32 0, i32 4
  %140 = load ptr, ptr %139, align 8, !tbaa !33
  %141 = load ptr, ptr %5, align 8, !tbaa !64
  %142 = load ptr, ptr %6, align 8, !tbaa !67
  %143 = getelementptr inbounds nuw %struct.AVCodecParameters, ptr %142, i32 0, i32 26
  %144 = load i32, ptr %143, align 4, !tbaa !55
  %145 = icmp ne i32 %144, 0
  br i1 %145, label %146, label %150

146:                                              ; preds = %137
  %147 = load ptr, ptr %6, align 8, !tbaa !67
  %148 = getelementptr inbounds nuw %struct.AVCodecParameters, ptr %147, i32 0, i32 26
  %149 = load i32, ptr %148, align 4, !tbaa !55
  br label %156

150:                                              ; preds = %137
  %151 = load ptr, ptr %6, align 8, !tbaa !67
  %152 = getelementptr inbounds nuw %struct.AVCodecParameters, ptr %151, i32 0, i32 24
  %153 = getelementptr inbounds nuw %struct.AVChannelLayout, ptr %152, i32 0, i32 1
  %154 = load i32, ptr %153, align 4, !tbaa !46
  %155 = mul nsw i32 1024, %154
  br label %156

156:                                              ; preds = %150, %146
  %157 = phi i32 [ %149, %146 ], [ %155, %150 ]
  %158 = call i32 @av_get_packet(ptr noundef %140, ptr noundef %141, i32 noundef %157)
  store i32 %158, ptr %8, align 4, !tbaa !51
  br label %159

159:                                              ; preds = %156, %127
  br label %160

160:                                              ; preds = %159, %121
  %161 = load ptr, ptr %5, align 8, !tbaa !64
  %162 = getelementptr inbounds nuw %struct.AVPacket, ptr %161, i32 0, i32 5
  store i32 0, ptr %162, align 4, !tbaa !71
  %163 = load i32, ptr %8, align 4, !tbaa !51
  store i32 %163, ptr %3, align 4
  store i32 1, ptr %11, align 4
  br label %164

164:                                              ; preds = %160, %119
  call void @llvm.lifetime.end.p0(i64 4, ptr %8) #5
  call void @llvm.lifetime.end.p0(i64 8, ptr %7) #5
  call void @llvm.lifetime.end.p0(i64 8, ptr %6) #5
  %165 = load i32, ptr %3, align 4
  ret i32 %165
}