; Function Attrs: nounwind uwtable
define internal i32 @genh_read_packet(ptr noundef readonly captures(none) %0, ptr noundef %1) #1 {
  %3 = getelementptr inbounds nuw i8, ptr %0, i64 48
  %4 = load ptr, ptr %3, align 8, !tbaa !52
  %5 = load ptr, ptr %4, align 8, !tbaa !53
  %6 = getelementptr inbounds nuw i8, ptr %5, i64 16
  %7 = load ptr, ptr %6, align 8, !tbaa !28
  %8 = getelementptr inbounds nuw i8, ptr %0, i64 24
  %9 = load ptr, ptr %8, align 8, !tbaa !12
  %10 = load i32, ptr %9, align 4, !tbaa !49
  %11 = icmp eq i32 %10, 1
  %12 = getelementptr inbounds nuw i8, ptr %7, i64 4
  %13 = load i32, ptr %12, align 4, !tbaa !48
  %14 = icmp eq i32 %13, 69650
  %or.cond = select i1 %11, i1 %14, i1 false
  br i1 %or.cond, label %15, label %._crit_edge54

15:                                               ; preds = %2
  %16 = getelementptr inbounds nuw i8, ptr %7, i64 132
  %17 = load i32, ptr %16, align 4, !tbaa !38
  %18 = icmp sgt i32 %17, 1
  br i1 %18, label %19, label %.thread56

19:                                               ; preds = %15
  %20 = getelementptr inbounds nuw i8, ptr %0, i64 32
  %21 = load ptr, ptr %20, align 8, !tbaa !27
  %22 = tail call i32 @avio_feof(ptr noundef %21) #4
  %.not45 = icmp eq i32 %22, 0
  br i1 %.not45, label %23, label %.thread

23:                                               ; preds = %19
  %24 = load i32, ptr %16, align 4, !tbaa !38
  %25 = shl nsw i32 %24, 3
  %26 = tail call i32 @av_new_packet(ptr noundef %1, i32 noundef %25) #4
  %27 = icmp slt i32 %26, 0
  br i1 %27, label %.thread, label %.preheader49

.preheader49:                                     ; preds = %23
  %28 = getelementptr inbounds nuw i8, ptr %9, i64 4
  %29 = load i32, ptr %28, align 4, !tbaa !41
  %.not52 = icmp ugt i32 %29, 8
  br i1 %.not52, label %.loopexit, label %.preheader.lr.ph

.preheader.lr.ph:                                 ; preds = %.preheader49
  %30 = getelementptr inbounds nuw i8, ptr %1, i64 24
  %31 = load i32, ptr %16, align 4, !tbaa !38
  %32 = icmp sgt i32 %31, 0
  br i1 %32, label %.preheader, label %.loopexit

.preheader:                                       ; preds = %.preheader.lr.ph, %._crit_edge
  %33 = phi i32 [ %59, %._crit_edge ], [ %29, %.preheader.lr.ph ]
  %34 = phi i32 [ %60, %._crit_edge ], [ %31, %.preheader.lr.ph ]
  %.03951 = phi i32 [ %61, %._crit_edge ], [ 0, %.preheader.lr.ph ]
  %35 = icmp sgt i32 %34, 0
  br i1 %35, label %.lr.ph, label %._crit_edge

.lr.ph:                                           ; preds = %.preheader, %.lr.ph
  %.03850 = phi i32 [ %56, %.lr.ph ], [ 0, %.preheader ]
  %36 = load ptr, ptr %20, align 8, !tbaa !27
  %37 = tail call i32 @avio_r8(ptr noundef %36) #4
  %38 = trunc i32 %37 to i8
  %39 = load ptr, ptr %30, align 8, !tbaa !55
  %40 = shl nsw i32 %.03850, 3
  %41 = load i32, ptr %28, align 4, !tbaa !41
  %42 = mul i32 %41, %.03951
  %43 = add i32 %42, %40
  %44 = zext i32 %43 to i64
  %45 = getelementptr inbounds nuw i8, ptr %39, i64 %44
  store i8 %38, ptr %45, align 1, !tbaa !11
  %46 = load ptr, ptr %20, align 8, !tbaa !27
  %47 = tail call i32 @avio_r8(ptr noundef %46) #4
  %48 = trunc i32 %47 to i8
  %49 = load ptr, ptr %30, align 8, !tbaa !55
  %50 = load i32, ptr %28, align 4, !tbaa !41
  %51 = mul i32 %50, %.03951
  %52 = or disjoint i32 %40, 1
  %53 = add i32 %52, %51
  %54 = zext i32 %53 to i64
  %55 = getelementptr inbounds nuw i8, ptr %49, i64 %54
  store i8 %48, ptr %55, align 1, !tbaa !11
  %56 = add nuw nsw i32 %.03850, 1
  %57 = load i32, ptr %16, align 4, !tbaa !38
  %58 = icmp slt i32 %56, %57
  br i1 %58, label %.lr.ph, label %._crit_edge.loopexit, !llvm.loop !56

._crit_edge.loopexit:                             ; preds = %.lr.ph
  %.pre55 = load i32, ptr %28, align 4, !tbaa !41
  br label %._crit_edge

._crit_edge:                                      ; preds = %._crit_edge.loopexit, %.preheader
  %59 = phi i32 [ %.pre55, %._crit_edge.loopexit ], [ %33, %.preheader ]
  %60 = phi i32 [ %57, %._crit_edge.loopexit ], [ %34, %.preheader ]
  %61 = add nuw nsw i32 %.03951, 1
  %62 = udiv i32 8, %59
  %63 = icmp samesign ult i32 %61, %62
  br i1 %63, label %.preheader, label %.loopexit, !llvm.loop !57

._crit_edge54:                                    ; preds = %2
  %64 = icmp eq i32 %13, 81924
  br i1 %64, label %65, label %.thread56

65:                                               ; preds = %._crit_edge54
  %66 = getelementptr inbounds nuw i8, ptr %0, i64 32
  %67 = load ptr, ptr %66, align 8, !tbaa !27
  %68 = getelementptr inbounds nuw i8, ptr %7, i64 156
  %69 = load i32, ptr %68, align 4, !tbaa !43
  %70 = shl nsw i32 %69, 10
  %71 = tail call i32 @av_get_packet(ptr noundef %67, ptr noundef %1, i32 noundef %70) #4
  br label %.loopexit

.thread56:                                        ; preds = %15, %._crit_edge54
  %72 = getelementptr inbounds nuw i8, ptr %0, i64 32
  %73 = load ptr, ptr %72, align 8, !tbaa !27
  %74 = getelementptr inbounds nuw i8, ptr %7, i64 156
  %75 = load i32, ptr %74, align 4, !tbaa !43
  %.not = icmp eq i32 %75, 0
  br i1 %.not, label %76, label %80

76:                                               ; preds = %.thread56
  %77 = getelementptr inbounds nuw i8, ptr %7, i64 132
  %78 = load i32, ptr %77, align 4, !tbaa !38
  %79 = shl nsw i32 %78, 10
  br label %80

80:                                               ; preds = %.thread56, %76
  %81 = phi i32 [ %79, %76 ], [ %75, %.thread56 ]
  %82 = tail call i32 @av_get_packet(ptr noundef %73, ptr noundef %1, i32 noundef %81) #4
  br label %.loopexit

.loopexit:                                        ; preds = %._crit_edge, %.preheader.lr.ph, %.preheader49, %65, %80
  %.1 = phi i32 [ %71, %65 ], [ %82, %80 ], [ 0, %.preheader49 ], [ 0, %.preheader.lr.ph ], [ 0, %._crit_edge ]
  %83 = getelementptr inbounds nuw i8, ptr %1, i64 36
  store i32 0, ptr %83, align 4, !tbaa !59
  br label %.thread

.thread:                                          ; preds = %23, %19, %.loopexit
  %.142 = phi i32 [ %.1, %.loopexit ], [ %26, %23 ], [ -541478725, %19 ]
  ret i32 %.142
}